target datalayout = "e-m:e-p270:32:32-p271:32:32-p272:64:64-i64:64-i128:128-f80:128-n8:16:32:64-S128"
target triple = "x86_64-pc-linux-gnu"

@.str.8 = private unnamed_addr constant [3 x i8] c"%s\00", align 1
@.str.14 = private unnamed_addr constant [7 x i8] c"dbname\00", align 1
@.str.18 = private unnamed_addr constant [5 x i8] c"host\00", align 1
@.str.25 = private unnamed_addr constant [5 x i8] c"port\00", align 1
@progname = internal global ptr null, align 8
@dbName = internal global ptr null, align 8
@pghost = internal global ptr null, align 8
@pgport = internal global ptr null, align 8
@username = internal global ptr null, align 8
@doConnect.password = internal global ptr null, align 8
@.str.281 = private unnamed_addr constant [5 x i8] c"user\00", align 1
@.str.282 = private unnamed_addr constant [9 x i8] c"password\00", align 1
@.str.283 = private unnamed_addr constant [26 x i8] c"fallback_application_name\00", align 1
@.str.284 = private unnamed_addr constant [35 x i8] c"connection to database \22%s\22 failed\00", align 1
@.str.285 = private unnamed_addr constant [11 x i8] c"Password: \00", align 1

; Function Attrs: nounwind uwtable
define internal ptr @doConnect() #0 {
  %1 = alloca ptr, align 8
  %2 = alloca ptr, align 8
  %3 = alloca i8, align 1
  %4 = alloca [7 x ptr], align 16
  %5 = alloca [7 x ptr], align 16
  %6 = alloca i32, align 4
  call void @llvm.lifetime.start.p0(i64 8, ptr %2) #14
  call void @llvm.lifetime.start.p0(i64 1, ptr %3) #14
  br label %7

7:                                                ; preds = %53, %0
  call void @llvm.lifetime.start.p0(i64 56, ptr %4) #14
  call void @llvm.lifetime.start.p0(i64 56, ptr %5) #14
  %8 = getelementptr inbounds [7 x ptr], ptr %4, i64 0, i64 0
  store ptr @.str.18, ptr %8, align 16
  %9 = load ptr, ptr @pghost, align 8
  %10 = getelementptr inbounds [7 x ptr], ptr %5, i64 0, i64 0
  store ptr %9, ptr %10, align 16
  %11 = getelementptr inbounds [7 x ptr], ptr %4, i64 0, i64 1
  store ptr @.str.25, ptr %11, align 8
  %12 = load ptr, ptr @pgport, align 8
  %13 = getelementptr inbounds [7 x ptr], ptr %5, i64 0, i64 1
  store ptr %12, ptr %13, align 8
  %14 = getelementptr inbounds [7 x ptr], ptr %4, i64 0, i64 2
  store ptr @.str.281, ptr %14, align 16
  %15 = load ptr, ptr @username, align 8
  %16 = getelementptr inbounds [7 x ptr], ptr %5, i64 0, i64 2
  store ptr %15, ptr %16, align 16
  %17 = getelementptr inbounds [7 x ptr], ptr %4, i64 0, i64 3
  store ptr @.str.282, ptr %17, align 8
  %18 = load ptr, ptr @doConnect.password, align 8
  %19 = getelementptr inbounds [7 x ptr], ptr %5, i64 0, i64 3
  store ptr %18, ptr %19, align 8
  %20 = getelementptr inbounds [7 x ptr], ptr %4, i64 0, i64 4
  store ptr @.str.14, ptr %20, align 16
  %21 = load ptr, ptr @dbName, align 8
  %22 = getelementptr inbounds [7 x ptr], ptr %5, i64 0, i64 4
  store ptr %21, ptr %22, align 16
  %23 = getelementptr inbounds [7 x ptr], ptr %4, i64 0, i64 5
  store ptr @.str.283, ptr %23, align 8
  %24 = load ptr, ptr @progname, align 8
  %25 = getelementptr inbounds [7 x ptr], ptr %5, i64 0, i64 5
  store ptr %24, ptr %25, align 8
  %26 = getelementptr inbounds [7 x ptr], ptr %4, i64 0, i64 6
  store ptr null, ptr %26, align 16
  %27 = getelementptr inbounds [7 x ptr], ptr %5, i64 0, i64 6
  store ptr null, ptr %27, align 16
  store i8 0, ptr %3, align 1
  %28 = getelementptr inbounds [7 x ptr], ptr %4, i64 0, i64 0
  %29 = getelementptr inbounds [7 x ptr], ptr %5, i64 0, i64 0
  %30 = call ptr @PQconnectdbParams(ptr noundef %28, ptr noundef %29, i32 noundef 1)
  store ptr %30, ptr %2, align 8
  %31 = load ptr, ptr %2, align 8
  %32 = icmp ne ptr %31, null
  br i1 %32, label %35, label %33

33:                                               ; preds = %7
  %34 = load ptr, ptr @dbName, align 8
  call void (i32, i32, ptr, ...) @pg_log_generic(i32 noundef 4, i32 noundef 0, ptr noundef @.str.284, ptr noundef %34)
  store ptr null, ptr %1, align 8
  store i32 1, ptr %6, align 4
  br label %50

35:                                               ; preds = %7
  %36 = load ptr, ptr %2, align 8
  %37 = call i32 @PQstatus(ptr noundef %36)
  %38 = icmp eq i32 %37, 1
  br i1 %38, label %39, label %49

39:                                               ; preds = %35
  %40 = load ptr, ptr %2, align 8
  %41 = call i32 @PQconnectionNeedsPassword(ptr noundef %40)
  %42 = icmp ne i32 %41, 0
  br i1 %42, label %43, label %49

43:                                               ; preds = %39
  %44 = load ptr, ptr @doConnect.password, align 8
  %45 = icmp ne ptr %44, null
  br i1 %45, label %49, label %46

46:                                               ; preds = %43
  %47 = load ptr, ptr %2, align 8
  call void @PQfinish(ptr noundef %47)
  %48 = call ptr @simple_prompt(ptr noundef @.str.285, i1 noundef zeroext false)
  store ptr %48, ptr @doConnect.password, align 8
  store i8 1, ptr %3, align 1
  br label %49

49:                                               ; preds = %46, %43, %39, %35
  store i32 0, ptr %6, align 4
  br label %50

50:                                               ; preds = %49, %33
  call void @llvm.lifetime.end.p0(i64 56, ptr %5) #14
  call void @llvm.lifetime.end.p0(i64 56, ptr %4) #14
  %51 = load i32, ptr %6, align 4
  switch i32 %51, label %66 [
    i32 0, label %52
  ]

52:                                               ; preds = %50
  br label %53

53:                                               ; preds = %52
  %54 = load i8, ptr %3, align 1, !range !8, !noundef !9
  %55 = trunc i8 %54 to i1
  br i1 %55, label %7, label %56, !llvm.loop !30

56:                                               ; preds = %53
  %57 = load ptr, ptr %2, align 8
  %58 = call i32 @PQstatus(ptr noundef %57)
  %59 = icmp eq i32 %58, 1
  br i1 %59, label %60, label %64

60:                                               ; preds = %56
  %61 = load ptr, ptr %2, align 8
  %62 = call ptr @PQerrorMessage(ptr noundef %61)
  call void (i32, i32, ptr, ...) @pg_log_generic(i32 noundef 4, i32 noundef 0, ptr noundef @.str.8, ptr noundef %62)
  %63 = load ptr, ptr %2, align 8
  call void @PQfinish(ptr noundef %63)
  store ptr null, ptr %1, align 8
  store i32 1, ptr %6, align 4
  br label %66

64:                                               ; preds = %56
  %65 = load ptr, ptr %2, align 8
  store ptr %65, ptr %1, align 8
  store i32 1, ptr %6, align 4
  br label %66

66:                                               ; preds = %64, %60, %50
  call void @llvm.lifetime.end.p0(i64 1, ptr %3) #14
  call void @llvm.lifetime.end.p0(i64 8, ptr %2) #14
  %67 = load ptr, ptr %1, align 8
  ret ptr %67
}