; Function Attrs: nounwind uwtable
define internal fastcc ptr @doConnect() unnamed_addr #0 {
  %1 = alloca [7 x ptr], align 16
  %2 = alloca [7 x ptr], align 16
  %3 = getelementptr inbounds nuw i8, ptr %1, i64 8
  %4 = getelementptr inbounds nuw i8, ptr %2, i64 8
  %5 = getelementptr inbounds nuw i8, ptr %1, i64 16
  %6 = getelementptr inbounds nuw i8, ptr %2, i64 16
  %7 = getelementptr inbounds nuw i8, ptr %1, i64 24
  %8 = getelementptr inbounds nuw i8, ptr %2, i64 24
  %9 = getelementptr inbounds nuw i8, ptr %1, i64 32
  %10 = getelementptr inbounds nuw i8, ptr %2, i64 32
  %11 = getelementptr inbounds nuw i8, ptr %1, i64 40
  %12 = getelementptr inbounds nuw i8, ptr %2, i64 40
  %13 = getelementptr inbounds nuw i8, ptr %1, i64 48
  %14 = getelementptr inbounds nuw i8, ptr %2, i64 48
  %.pre = load ptr, ptr @doConnect.password, align 8
  br label %15

15:                                               ; preds = %33, %0
  %16 = phi ptr [ %34, %33 ], [ %.pre, %0 ]
  call void @llvm.lifetime.start.p0(i64 56, ptr nonnull %1) #25
  call void @llvm.lifetime.start.p0(i64 56, ptr nonnull %2) #25
  store ptr @.str.18, ptr %1, align 16
  %17 = load ptr, ptr @pghost, align 8
  store ptr %17, ptr %2, align 16
  store ptr @.str.25, ptr %3, align 8
  %18 = load ptr, ptr @pgport, align 8
  store ptr %18, ptr %4, align 8
  store ptr @.str.281, ptr %5, align 16
  %19 = load ptr, ptr @username, align 8
  store ptr %19, ptr %6, align 16
  store ptr @.str.282, ptr %7, align 8
  store ptr %16, ptr %8, align 8
  store ptr @.str.14, ptr %9, align 16
  %20 = load ptr, ptr @dbName, align 8
  store ptr %20, ptr %10, align 16
  store ptr @.str.283, ptr %11, align 8
  %21 = load ptr, ptr @progname, align 8
  store ptr %21, ptr %12, align 8
  store ptr null, ptr %13, align 16
  store ptr null, ptr %14, align 16
  %22 = call ptr @PQconnectdbParams(ptr noundef nonnull %1, ptr noundef nonnull %2, i32 noundef 1) #25
  %.not.not = icmp eq ptr %22, null
  br i1 %.not.not, label %31, label %23

23:                                               ; preds = %15
  %24 = call i32 @PQstatus(ptr noundef nonnull %22) #25
  %25 = icmp eq i32 %24, 1
  br i1 %25, label %26, label %35

26:                                               ; preds = %23
  %27 = call i32 @PQconnectionNeedsPassword(ptr noundef nonnull %22) #25
  %28 = icmp eq i32 %27, 0
  %29 = load ptr, ptr @doConnect.password, align 8
  %30 = icmp ne ptr %29, null
  %or.cond = select i1 %28, i1 true, i1 %30
  br i1 %or.cond, label %35, label %33

31:                                               ; preds = %15
  %32 = load ptr, ptr @dbName, align 8
  call void (i32, i32, ptr, ...) @pg_log_generic(i32 noundef 4, i32 noundef 0, ptr noundef nonnull @.str.284, ptr noundef %32) #25
  call void @llvm.lifetime.end.p0(i64 56, ptr nonnull %2) #25
  call void @llvm.lifetime.end.p0(i64 56, ptr nonnull %1) #25
  br label %40

33:                                               ; preds = %26
  call void @PQfinish(ptr noundef nonnull %22) #25
  %34 = call ptr @simple_prompt(ptr noundef nonnull @.str.285, i1 noundef zeroext false) #25
  store ptr %34, ptr @doConnect.password, align 8
  call void @llvm.lifetime.end.p0(i64 56, ptr nonnull %2) #25
  call void @llvm.lifetime.end.p0(i64 56, ptr nonnull %1) #25
  br label %15, !llvm.loop !41

35:                                               ; preds = %23, %26
  call void @llvm.lifetime.end.p0(i64 56, ptr nonnull %2) #25
  call void @llvm.lifetime.end.p0(i64 56, ptr nonnull %1) #25
  %36 = call i32 @PQstatus(ptr noundef nonnull %22) #25
  %37 = icmp eq i32 %36, 1
  br i1 %37, label %38, label %40

38:                                               ; preds = %35
  %39 = call ptr @PQerrorMessage(ptr noundef nonnull %22) #25
  call void (i32, i32, ptr, ...) @pg_log_generic(i32 noundef 4, i32 noundef 0, ptr noundef nonnull @.str.8, ptr noundef %39) #25
  call void @PQfinish(ptr noundef nonnull %22) #25
  br label %40

40:                                               ; preds = %31, %35, %38
  %.2 = phi ptr [ null, %38 ], [ null, %31 ], [ %22, %35 ]
  ret ptr %.2
}